Certificate:
    Data:
        Version: 3 (0x2)
        Serial Number: 204 (0xcc)
    Signature Algorithm: sha1WithRSAEncryption
        Issuer: C=UA, DC=grid, O=BITP, OU=Education, CN=CAEdu
        Validity
            Not Before: Apr  2 08:19:42 2019 GMT
            Not After : Apr  1 08:19:42 2020 GMT
        Subject: C=UA, O=BITP, OU=Education, CN=Dmytro Obrusnik
        Subject Public Key Info:
            Public Key Algorithm: rsaEncryption
                Public-Key: (2048 bit)
                Modulus:
                    00:b1:e1:69:3b:41:dd:5d:a2:9f:2e:9c:6f:10:19:
                    73:de:95:2d:2b:6e:9b:bf:15:bc:bd:8c:46:5a:80:
                    97:e7:4b:13:5e:d7:da:42:11:02:63:66:7b:02:fe:
                    cc:10:e4:c2:ae:96:94:c1:80:d6:d4:f0:43:71:56:
                    68:ac:8e:ba:2a:83:15:24:9f:a5:f1:f4:bc:ea:5c:
                    69:a1:48:b5:01:36:36:ea:09:42:70:f0:cf:22:d0:
                    6d:16:ca:dc:b1:4f:be:1b:35:82:10:df:71:8d:d2:
                    f4:b0:4a:8b:3a:9a:47:8a:0a:ef:ef:5b:b0:6a:92:
                    ee:0c:c6:8a:d7:cd:be:f9:14:41:b8:ba:81:07:48:
                    15:12:8f:9a:0e:29:60:79:d2:f9:db:8c:53:a2:82:
                    00:76:58:b4:88:6c:3f:10:59:a1:83:e8:da:26:63:
                    e2:4e:49:25:6c:7d:28:ad:8a:f4:6e:4f:ad:22:d7:
                    82:8c:b1:2e:d2:33:24:37:84:ca:5b:60:08:ac:ff:
                    e2:25:90:1b:ab:29:56:05:f0:7f:ac:f4:39:c9:37:
                    0e:53:1e:0b:8e:17:e5:a2:f2:96:74:16:50:80:2e:
                    1a:3e:f2:ae:fd:7e:d9:96:33:27:ac:ac:0d:29:1a:
                    5b:8b:dd:56:2b:f3:0c:86:5e:af:13:23:6d:74:d9:
                    ac:8d
                Exponent: 65537 (0x10001)
        X509v3 extensions:
            Netscape Cert Type: 
                SSL Client, SSL Server, S/MIME, Object Signing
    Signature Algorithm: sha1WithRSAEncryption
         1e:11:a2:e6:24:81:59:fd:0c:1f:6d:31:12:80:71:60:43:ea:
         9a:f1:54:fe:fc:d8:4c:70:e6:7c:ac:08:78:f1:1a:38:f8:9b:
         92:f1:66:89:e6:27:84:ff:33:3e:4c:b4:1b:cc:50:a3:32:d3:
         b1:d5:e9:ff:86:79:96:19:3a:36:e4:05:c4:99:4a:eb:28:8d:
         6b:38:44:cf:db:c4:39:23:91:fb:dc:19:db:4d:a8:dc:0d:4c:
         62:1a:b5:e1:5d:8e:fb:8b:b9:54:37:1c:85:62:9f:26:d7:39:
         96:1d:c1:9b:7d:03:31:8c:0c:05:a6:45:6b:78:8d:9c:13:9c:
         e0:0a:0b:2b:75:af:2a:64:9e:c9:5a:12:f5:ce:ce:38:12:7a:
         c5:ac:08:4c:8d:68:8d:97:01:a5:41:74:68:51:4f:13:b8:6b:
         e1:f6:3e:cc:80:55:b6:ca:ea:11:05:57:7c:8c:82:0e:ab:69:
         05:53:45:0c:4e:9e:05:85:87:87:0f:de:dd:a6:6b:b1:56:e0:
         bc:cd:32:81:74:24:18:d4:75:49:6e:51:40:20:d0:d3:88:1f:
         72:44:10:7f:67:79:a4:d8:7c:00:d6:42:38:cc:a3:88:70:00:
         05:ea:11:83:f9:9f:cf:31:c5:f3:d9:33:d7:af:7f:96:92:1d:
         63:b5:aa:07:ef:b2:3c:6f:15:f2:fb:28:2b:82:6f:38:98:91:
         3b:ce:9b:a0:ab:01:00:ab:91:46:77:4c:90:67:47:79:cd:02:
         f9:df:78:42:f3:33:5c:16:1e:6d:b0:20:91:ef:a3:14:56:23:
         d5:10:38:21:8b:cf:a5:73:36:48:a6:fb:8a:09:67:24:6c:fe:
         eb:84:20:7b:1f:b8:69:0e:89:f5:6c:d9:86:ac:53:ba:a0:05:
         00:da:af:7f:45:eb:ed:07:21:76:44:91:93:57:d3:db:df:1a:
         db:d5:07:8b:79:7c:2e:16:13:aa:ff:57:81:0a:9e:7c:f3:d9:
         f7:f7:fe:13:09:23:0f:7c:3e:ef:e5:cf:25:fb:34:4f:f6:1b:
         78:b2:96:f0:2a:29:99:ac:3c:03:f8:fa:8d:62:ba:0c:80:50:
         da:6f:b6:51:36:28:69:8f:24:48:c3:5e:85:4f:0b:e5:a9:63:
         54:98:72:fb:2b:10:0f:80:c2:a4:6a:4a:f2:80:30:d1:d6:5d:
         23:c6:c0:e0:b3:f3:4a:f6:9d:4b:5b:84:8c:d9:d7:31:aa:4d:
         5e:93:f5:49:35:9f:91:7a:0d:51:c2:e2:6e:46:1a:62:97:9d:
         c0:15:b7:ce:3b:ed:b3:37:55:d4:e2:65:8c:98:fe:eb:5a:59:
         61:5a:fb:2c:4d:c4:5d:7a
-----BEGIN CERTIFICATE-----
MIIEMTCCAhmgAwIBAgICAMwwDQYJKoZIhvcNAQEFBQAwVjELMAkGA1UEBhMCVUEx
FDASBgoJkiaJk/IsZAEZFgRncmlkMQ0wCwYDVQQKEwRCSVRQMRIwEAYDVQQLEwlF
ZHVjYXRpb24xDjAMBgNVBAMTBUNBRWR1MB4XDTE5MDQwMjA4MTk0MloXDTIwMDQw
MTA4MTk0MlowSjELMAkGA1UEBhMCVUExDTALBgNVBAoTBEJJVFAxEjAQBgNVBAsT
CUVkdWNhdGlvbjEYMBYGA1UEAxMPRG15dHJvIE9icnVzbmlrMIIBIjANBgkqhkiG
9w0BAQEFAAOCAQ8AMIIBCgKCAQEAseFpO0HdXaKfLpxvEBlz3pUtK26bvxW8vYxG
WoCX50sTXtfaQhECY2Z7Av7MEOTCrpaUwYDW1PBDcVZorI66KoMVJJ+l8fS86lxp
oUi1ATY26glCcPDPItBtFsrcsU++GzWCEN9xjdL0sEqLOppHigrv71uwapLuDMaK
182++RRBuLqBB0gVEo+aDilgedL524xTooIAdli0iGw/EFmhg+jaJmPiTkklbH0o
rYr0bk+tIteCjLEu0jMkN4TKW2AIrP/iJZAbqylWBfB/rPQ5yTcOUx4LjhflovKW
dBZQgC4aPvKu/X7ZljMnrKwNKRpbi91WK/MMhl6vEyNtdNmsjQIDAQABoxUwEzAR
BglghkgBhvhCAQEEBAMCBPAwDQYJKoZIhvcNAQEFBQADggIBAB4RouYkgVn9DB9t
MRKAcWBD6prxVP782Exw5nysCHjxGjj4m5LxZonmJ4T/Mz5MtBvMUKMy07HV6f+G
eZYZOjbkBcSZSusojWs4RM/bxDkjkfvcGdtNqNwNTGIateFdjvuLuVQ3HIVinybX
OZYdwZt9AzGMDAWmRWt4jZwTnOAKCyt1rypknslaEvXOzjgSesWsCEyNaI2XAaVB
dGhRTxO4a+H2PsyAVbbK6hEFV3yMgg6raQVTRQxOngWFh4cP3t2ma7FW4LzNMoF0
JBjUdUluUUAg0NOIH3JEEH9neaTYfADWQjjMo4hwAAXqEYP5n88xxfPZM9evf5aS
HWO1qgfvsjxvFfL7KCuCbziYkTvOm6CrAQCrkUZ3TJBnR3nNAvnfeELzM1wWHm2w
IJHvoxRWI9UQOCGLz6VzNkim+4oJZyRs/uuEIHsfuGkOifVs2YasU7qgBQDar39F
6+0HIXZEkZNX09vfGtvVB4t5fC4WE6r/V4EKnnzz2ff3/hMJIw98Pu/lzyX7NE/2
G3iylvAqKZmsPAP4+o1iugyAUNpvtlE2KGmPJEjDXoVPC+WpY1SYcvsrEA+AwqRq
SvKAMNHWXSPGwOCz80r2nUtbhIzZ1zGqTV6T9Uk1n5F6DVHC4m5GGmKXncAVt847
7bM3VdTiZYyY/utaWWFa+yxNxF16
-----END CERTIFICATE-----
